target datalayout = "e-m:e-p270:32:32-p271:32:32-p272:64:64-i64:64-i128:128-f80:128-n8:16:32:64-S128"
target triple = "x86_64-unknown-linux-gnu"

%"class.icu_75::UnicodeSet" = type <{ %"class.icu_75::UnicodeFilter", ptr, i32, i32, i8, [7 x i8], ptr, ptr, i32, [4 x i8], ptr, i32, [4 x i8], ptr, ptr, [25 x i32], [4 x i8] }>
%"class.icu_75::UnicodeFilter" = type { %"class.icu_75::UnicodeFunctor", %"class.icu_75::UnicodeMatcher" }
%"class.icu_75::UnicodeFunctor" = type { %"class.icu_75::UObject" }
%"class.icu_75::UObject" = type { ptr }
%"class.icu_75::UnicodeMatcher" = type { ptr }

; Function Attrs: mustprogress nounwind uwtable
define internal noundef signext i8 @_ZL9U_FAILURE10UErrorCode(i32 noundef %code) #0 {
entry:
  %code.addr = alloca i32, align 4
  store i32 %code, ptr %code.addr, align 4
  %0 = load i32, ptr %code.addr, align 4
  %cmp = icmp sgt i32 %0, 0
  %conv = zext i1 %cmp to i8
  ret i8 %conv
}

; Function Attrs: mustprogress uwtable
define noundef signext i8 @_ZN6icu_7510UnicodeSet15allocateStringsER10UErrorCode(ptr noundef nonnull align 8 dereferenceable(200) %this, ptr noundef nonnull align 4 dereferenceable(4) %status) #1 align 2 personality ptr @__gxx_personality_v0 {
entry:
  %retval = alloca i8, align 1
  %this.addr = alloca ptr, align 8
  %status.addr = alloca ptr, align 8
  %saved-rvalue = alloca ptr, align 8
  %cleanup.cond = alloca i1, align 1
  %exn.slot = alloca ptr, align 8
  %ehselector.slot = alloca i32, align 4
  store ptr %this, ptr %this.addr, align 8
  store ptr %status, ptr %status.addr, align 8
  %this1 = load ptr, ptr %this.addr, align 8
  %0 = load ptr, ptr %status.addr, align 8
  %1 = load i32, ptr %0, align 4
  %call = call noundef signext i8 @_ZL9U_FAILURE10UErrorCode(i32 noundef %1)
  %tobool = icmp ne i8 %call, 0
  br i1 %tobool, label %if.then, label %if.end

if.then:                                          ; preds = %entry
  store i8 0, ptr %retval, align 1
  br label %return

if.end:                                           ; preds = %entry
  %call2 = call noundef ptr @_ZN6icu_757UMemorynwEm(i64 noundef 40) #12
  %new.isnull = icmp eq ptr %call2, null
  store i1 false, ptr %cleanup.cond, align 1
  br i1 %new.isnull, label %new.cont, label %new.notnull

new.notnull:                                      ; preds = %if.end
  store ptr %call2, ptr %saved-rvalue, align 8
  store i1 true, ptr %cleanup.cond, align 1
  %2 = load ptr, ptr %status.addr, align 8
  invoke void @_ZN6icu_757UVectorC1EPFvPvEPFa8UElementS4_EiR10UErrorCode(ptr noundef nonnull align 8 dereferenceable(40) %call2, ptr noundef @uprv_deleteUObject_75, ptr noundef @uhash_compareUnicodeString_75, i32 noundef 1, ptr noundef nonnull align 4 dereferenceable(4) %2)
          to label %invoke.cont unwind label %lpad

invoke.cont:                                      ; preds = %new.notnull
  br label %new.cont

new.cont:                                         ; preds = %invoke.cont, %if.end
  %3 = phi ptr [ %call2, %invoke.cont ], [ null, %if.end ]
  %strings = getelementptr inbounds %"class.icu_75::UnicodeSet", ptr %this1, i32 0, i32 13
  store ptr %3, ptr %strings, align 8
  %strings3 = getelementptr inbounds %"class.icu_75::UnicodeSet", ptr %this1, i32 0, i32 13
  %4 = load ptr, ptr %strings3, align 8
  %cmp = icmp eq ptr %4, null
  br i1 %cmp, label %if.then4, label %if.end5

if.then4:                                         ; preds = %new.cont
  %5 = load ptr, ptr %status.addr, align 8
  store i32 7, ptr %5, align 4
  store i8 0, ptr %retval, align 1
  br label %return

lpad:                                             ; preds = %new.notnull
  %6 = landingpad { ptr, i32 }
          cleanup
  %7 = extractvalue { ptr, i32 } %6, 0
  store ptr %7, ptr %exn.slot, align 8
  %8 = extractvalue { ptr, i32 } %6, 1
  store i32 %8, ptr %ehselector.slot, align 4
  %cleanup.is_active = load i1, ptr %cleanup.cond, align 1
  br i1 %cleanup.is_active, label %cleanup.action, label %cleanup.done

cleanup.action:                                   ; preds = %lpad
  %9 = load ptr, ptr %saved-rvalue, align 8
  call void @_ZN6icu_757UMemorydlEPv(ptr noundef %9) #12
  br label %cleanup.done

cleanup.done:                                     ; preds = %cleanup.action, %lpad
  br label %eh.resume

if.end5:                                          ; preds = %new.cont
  %10 = load ptr, ptr %status.addr, align 8
  %11 = load i32, ptr %10, align 4
  %call6 = call noundef signext i8 @_ZL9U_FAILURE10UErrorCode(i32 noundef %11)
  %tobool7 = icmp ne i8 %call6, 0
  br i1 %tobool7, label %if.then8, label %if.end11

if.then8:                                         ; preds = %if.end5
  %strings9 = getelementptr inbounds %"class.icu_75::UnicodeSet", ptr %this1, i32 0, i32 13
  %12 = load ptr, ptr %strings9, align 8
  %isnull = icmp eq ptr %12, null
  br i1 %isnull, label %delete.end, label %delete.notnull

delete.notnull:                                   ; preds = %if.then8
  %vtable = load ptr, ptr %12, align 8
  %vfn = getelementptr inbounds ptr, ptr %vtable, i64 1
  %13 = load ptr, ptr %vfn, align 8
  call void %13(ptr noundef nonnull align 8 dereferenceable(40) %12) #12
  br label %delete.end

delete.end:                                       ; preds = %delete.notnull, %if.then8
  %strings10 = getelementptr inbounds %"class.icu_75::UnicodeSet", ptr %this1, i32 0, i32 13
  store ptr null, ptr %strings10, align 8
  store i8 0, ptr %retval, align 1
  br label %return

if.end11:                                         ; preds = %if.end5
  store i8 1, ptr %retval, align 1
  br label %return

return:                                           ; preds = %if.end11, %delete.end, %if.then4, %if.then
  %14 = load i8, ptr %retval, align 1
  ret i8 %14

eh.resume:                                        ; preds = %cleanup.done
  %exn = load ptr, ptr %exn.slot, align 8
  %sel = load i32, ptr %ehselector.slot, align 4
  %lpad.val = insertvalue { ptr, i32 } poison, ptr %exn, 0
  %lpad.val12 = insertvalue { ptr, i32 } %lpad.val, i32 %sel, 1
  resume { ptr, i32 } %lpad.val12
}

; Function Attrs: mustprogress nounwind uwtable
define linkonce_odr noundef signext i8 @_ZNK6icu_7510UnicodeSet7isBogusEv(ptr noundef nonnull align 8 dereferenceable(200) %this) #0 comdat align 2 {
entry:
  %this.addr = alloca ptr, align 8
  store ptr %this, ptr %this.addr, align 8
  %this1 = load ptr, ptr %this.addr, align 8
  %fFlags = getelementptr inbounds %"class.icu_75::UnicodeSet", ptr %this1, i32 0, i32 4
  %0 = load i8, ptr %fFlags, align 8
  %conv = zext i8 %0 to i32
  %and = and i32 %conv, 1
  %conv2 = trunc i32 %and to i8
  ret i8 %conv2
}

; Function Attrs: mustprogress nounwind uwtable
define linkonce_odr noundef signext i8 @_ZNK6icu_7510UnicodeSet8isFrozenEv(ptr noundef nonnull align 8 dereferenceable(200) %this) #0 comdat align 2 {
entry:
  %this.addr = alloca ptr, align 8
  store ptr %this, ptr %this.addr, align 8
  %this1 = load ptr, ptr %this.addr, align 8
  %bmpSet = getelementptr inbounds %"class.icu_75::UnicodeSet", ptr %this1, i32 0, i32 6
  %0 = load ptr, ptr %bmpSet, align 8
  %cmp = icmp ne ptr %0, null
  br i1 %cmp, label %lor.end, label %lor.rhs

lor.rhs:                                          ; preds = %entry
  %stringSpan = getelementptr inbounds %"class.icu_75::UnicodeSet", ptr %this1, i32 0, i32 14
  %1 = load ptr, ptr %stringSpan, align 8
  %cmp2 = icmp ne ptr %1, null
  br label %lor.end

lor.end:                                          ; preds = %lor.rhs, %entry
  %2 = phi i1 [ true, %entry ], [ %cmp2, %lor.rhs ]
  %conv = zext i1 %2 to i8
  ret i8 %conv
}

; Function Attrs: mustprogress uwtable
define void @_ZN6icu_7510UnicodeSet4_addERKNS_13UnicodeStringE(ptr noundef nonnull align 8 dereferenceable(200) %this, ptr noundef nonnull align 8 dereferenceable(64) %s) #1 align 2 personality ptr @__gxx_personality_v0 {
entry:
  %this.addr = alloca ptr, align 8
  %s.addr = alloca ptr, align 8
  %ec = alloca i32, align 4
  %t = alloca ptr, align 8
  %saved-rvalue = alloca ptr, align 8
  %cleanup.cond = alloca i1, align 1
  %exn.slot = alloca ptr, align 8
  %ehselector.slot = alloca i32, align 4
  store ptr %this, ptr %this.addr, align 8
  store ptr %s, ptr %s.addr, align 8
  %this1 = load ptr, ptr %this.addr, align 8
  %call = call noundef signext i8 @_ZNK6icu_7510UnicodeSet8isFrozenEv(ptr noundef nonnull align 8 dereferenceable(200) %this1)
  %tobool = icmp ne i8 %call, 0
  br i1 %tobool, label %if.then, label %lor.lhs.false

lor.lhs.false:                                    ; preds = %entry
  %call2 = call noundef signext i8 @_ZNK6icu_7510UnicodeSet7isBogusEv(ptr noundef nonnull align 8 dereferenceable(200) %this1)
  %tobool3 = icmp ne i8 %call2, 0
  br i1 %tobool3, label %if.then, label %if.end

if.then:                                          ; preds = %lor.lhs.false, %entry
  br label %if.end16

if.end:                                           ; preds = %lor.lhs.false
  store i32 0, ptr %ec, align 4
  %strings = getelementptr inbounds %"class.icu_75::UnicodeSet", ptr %this1, i32 0, i32 13
  %0 = load ptr, ptr %strings, align 8
  %cmp = icmp eq ptr %0, null
  br i1 %cmp, label %land.lhs.true, label %if.end7

land.lhs.true:                                    ; preds = %if.end
  %call4 = call noundef signext i8 @_ZN6icu_7510UnicodeSet15allocateStringsER10UErrorCode(ptr noundef nonnull align 8 dereferenceable(200) %this1, ptr noundef nonnull align 4 dereferenceable(4) %ec)
  %tobool5 = icmp ne i8 %call4, 0
  br i1 %tobool5, label %if.end7, label %if.then6

if.then6:                                         ; preds = %land.lhs.true
  call void @_ZN6icu_7510UnicodeSet10setToBogusEv(ptr noundef nonnull align 8 dereferenceable(200) %this1)
  br label %if.end16

if.end7:                                          ; preds = %land.lhs.true, %if.end
  %call8 = call noundef ptr @_ZN6icu_757UMemorynwEm(i64 noundef 64) #12
  %new.isnull = icmp eq ptr %call8, null
  store i1 false, ptr %cleanup.cond, align 1
  br i1 %new.isnull, label %new.cont, label %new.notnull

new.notnull:                                      ; preds = %if.end7
  store ptr %call8, ptr %saved-rvalue, align 8
  store i1 true, ptr %cleanup.cond, align 1
  %1 = load ptr, ptr %s.addr, align 8
  invoke void @_ZN6icu_7513UnicodeStringC1ERKS0_(ptr noundef nonnull align 8 dereferenceable(64) %call8, ptr noundef nonnull align 8 dereferenceable(64) %1)
          to label %invoke.cont unwind label %lpad

invoke.cont:                                      ; preds = %new.notnull
  br label %new.cont

new.cont:                                         ; preds = %invoke.cont, %if.end7
  %2 = phi ptr [ %call8, %invoke.cont ], [ null, %if.end7 ]
  store ptr %2, ptr %t, align 8
  %3 = load ptr, ptr %t, align 8
  %cmp9 = icmp eq ptr %3, null
  br i1 %cmp9, label %if.then10, label %if.end11

if.then10:                                        ; preds = %new.cont
  call void @_ZN6icu_7510UnicodeSet10setToBogusEv(ptr noundef nonnull align 8 dereferenceable(200) %this1)
  br label %if.end16

lpad:                                             ; preds = %new.notnull
  %4 = landingpad { ptr, i32 }
          cleanup
  %5 = extractvalue { ptr, i32 } %4, 0
  store ptr %5, ptr %exn.slot, align 8
  %6 = extractvalue { ptr, i32 } %4, 1
  store i32 %6, ptr %ehselector.slot, align 4
  %cleanup.is_active = load i1, ptr %cleanup.cond, align 1
  br i1 %cleanup.is_active, label %cleanup.action, label %cleanup.done

cleanup.action:                                   ; preds = %lpad
  %7 = load ptr, ptr %saved-rvalue, align 8
  call void @_ZN6icu_757UMemorydlEPv(ptr noundef %7) #12
  br label %cleanup.done

cleanup.done:                                     ; preds = %cleanup.action, %lpad
  br label %eh.resume

if.end11:                                         ; preds = %new.cont
  %strings12 = getelementptr inbounds %"class.icu_75::UnicodeSet", ptr %this1, i32 0, i32 13
  %8 = load ptr, ptr %strings12, align 8
  %9 = load ptr, ptr %t, align 8
  call void @_ZN6icu_757UVector12sortedInsertEPvPFi8UElementS2_ER10UErrorCode(ptr noundef nonnull align 8 dereferenceable(40) %8, ptr noundef %9, ptr noundef @_ZN6icu_75L20compareUnicodeStringE8UElementS0_, ptr noundef nonnull align 4 dereferenceable(4) %ec)
  %10 = load i32, ptr %ec, align 4
  %call13 = call noundef signext i8 @_ZL9U_FAILURE10UErrorCode(i32 noundef %10)
  %tobool14 = icmp ne i8 %call13, 0
  br i1 %tobool14, label %if.then15, label %if.end16

if.then15:                                        ; preds = %if.end11
  call void @_ZN6icu_7510UnicodeSet10setToBogusEv(ptr noundef nonnull align 8 dereferenceable(200) %this1)
  br label %if.end16

if.end16:                                         ; preds = %if.then15, %if.end11, %if.then10, %if.then6, %if.then
  ret void

eh.resume:                                        ; preds = %cleanup.done
  %exn = load ptr, ptr %exn.slot, align 8
  %sel = load i32, ptr %ehselector.slot, align 4
  %lpad.val = insertvalue { ptr, i32 } poison, ptr %exn, 0
  %lpad.val17 = insertvalue { ptr, i32 } %lpad.val, i32 %sel, 1
  resume { ptr, i32 } %lpad.val17
}