; Function Attrs: mustprogress uwtable
define void @_ZN6icu_7510UnicodeSet4_addERKNS_13UnicodeStringE(ptr nocapture noundef nonnull align 8 dereferenceable(200) %this, ptr noundef nonnull align 8 dereferenceable(64) %s) local_unnamed_addr #1 align 2 personality ptr @__gxx_personality_v0 {
entry:
  %ec = alloca i32, align 4
  %bmpSet.i = getelementptr inbounds i8, ptr %this, i64 40
  %0 = load ptr, ptr %bmpSet.i, align 8
  %cmp.not.i = icmp eq ptr %0, null
  %stringSpan.i = getelementptr inbounds i8, ptr %this, i64 88
  %1 = load ptr, ptr %stringSpan.i, align 8
  %cmp2.i = icmp eq ptr %1, null
  %narrow.i.not = select i1 %cmp.not.i, i1 %cmp2.i, i1 false
  br i1 %narrow.i.not, label %lor.lhs.false, label %if.end16

lor.lhs.false:                                    ; preds = %entry
  %fFlags.i = getelementptr inbounds i8, ptr %this, i64 32
  %2 = load i8, ptr %fFlags.i, align 8
  %3 = and i8 %2, 1
  %tobool3.not = icmp eq i8 %3, 0
  br i1 %tobool3.not, label %if.end, label %if.end16

if.end:                                           ; preds = %lor.lhs.false
  store i32 0, ptr %ec, align 4
  %strings = getelementptr inbounds i8, ptr %this, i64 80
  %4 = load ptr, ptr %strings, align 8
  %cmp = icmp eq ptr %4, null
  br i1 %cmp, label %if.end.i, label %if.end7

if.end.i:                                         ; preds = %if.end
  %call2.i = tail call noundef ptr @_ZN6icu_757UMemorynwEm(i64 noundef 40) #22
  %new.isnull.i = icmp eq ptr %call2.i, null
  br i1 %new.isnull.i, label %if.then4.i, label %new.notnull.i

new.notnull.i:                                    ; preds = %if.end.i
  invoke void @_ZN6icu_757UVectorC1EPFvPvEPFa8UElementS4_EiR10UErrorCode(ptr noundef nonnull align 8 dereferenceable(40) %call2.i, ptr noundef nonnull @uprv_deleteUObject_75, ptr noundef nonnull @uhash_compareUnicodeString_75, i32 noundef 1, ptr noundef nonnull align 4 dereferenceable(4) %ec)
          to label %if.end5.i unwind label %lpad.i

if.then4.i:                                       ; preds = %if.end.i
  store ptr null, ptr %strings, align 8
  store i32 7, ptr %ec, align 4
  br label %if.then6

common.resume:                                    ; preds = %lpad, %lpad.i
  %call8.sink = phi ptr [ %call8, %lpad ], [ %call2.i, %lpad.i ]
  %common.resume.op = phi { ptr, i32 } [ %13, %lpad ], [ %5, %lpad.i ]
  call void @_ZN6icu_757UMemorydlEPv(ptr noundef nonnull %call8.sink) #22
  resume { ptr, i32 } %common.resume.op

lpad.i:                                           ; preds = %new.notnull.i
  %5 = landingpad { ptr, i32 }
          cleanup
  br label %common.resume

if.end5.i:                                        ; preds = %new.notnull.i
  store ptr %call2.i, ptr %strings, align 8
  %6 = load i32, ptr %ec, align 4
  %cmp.i4.i = icmp slt i32 %6, 1
  br i1 %cmp.i4.i, label %if.end7, label %delete.end.i

delete.end.i:                                     ; preds = %if.end5.i
  %vtable.i = load ptr, ptr %call2.i, align 8
  %vfn.i = getelementptr inbounds i8, ptr %vtable.i, i64 8
  %7 = load ptr, ptr %vfn.i, align 8
  call void %7(ptr noundef nonnull align 8 dereferenceable(40) %call2.i) #22
  store ptr null, ptr %strings, align 8
  br label %if.then6

if.then6:                                         ; preds = %if.then4.i, %delete.end.i
  call void @_ZN6icu_7510UnicodeSet10setToBogusEv(ptr noundef nonnull align 8 dereferenceable(200) %this)
  br label %if.end16

if.end7:                                          ; preds = %if.end5.i, %if.end
  %call8 = call noundef ptr @_ZN6icu_757UMemorynwEm(i64 noundef 64) #22
  %new.isnull = icmp eq ptr %call8, null
  br i1 %new.isnull, label %if.then10, label %new.notnull

new.notnull:                                      ; preds = %if.end7
  invoke void @_ZN6icu_7513UnicodeStringC1ERKS0_(ptr noundef nonnull align 8 dereferenceable(64) %call8, ptr noundef nonnull align 8 dereferenceable(64) %s)
          to label %if.end11 unwind label %lpad

if.then10:                                        ; preds = %if.end7
  %8 = load ptr, ptr %bmpSet.i, align 8
  %cmp.not.i.i.i = icmp eq ptr %8, null
  %9 = load ptr, ptr %stringSpan.i, align 8
  %cmp2.i.i.i = icmp eq ptr %9, null
  %narrow.i.not.i.i = select i1 %cmp.not.i.i.i, i1 %cmp2.i.i.i, i1 false
  br i1 %narrow.i.not.i.i, label %if.end.i.i, label %_ZN6icu_7510UnicodeSet10setToBogusEv.exit

if.end.i.i:                                       ; preds = %if.then10
  %list.i.i = getelementptr inbounds i8, ptr %this, i64 16
  %10 = load ptr, ptr %list.i.i, align 8
  store i32 1114112, ptr %10, align 4
  %len.i.i = getelementptr inbounds i8, ptr %this, i64 28
  store i32 1, ptr %len.i.i, align 4
  %pat.i.i.i = getelementptr inbounds i8, ptr %this, i64 64
  %11 = load ptr, ptr %pat.i.i.i, align 8
  %tobool.not.i.i.i = icmp eq ptr %11, null
  br i1 %tobool.not.i.i.i, label %_ZN6icu_7510UnicodeSet14releasePatternEv.exit.i.i, label %if.then.i.i.i

if.then.i.i.i:                                    ; preds = %if.end.i.i
  call void @uprv_free_75(ptr noundef nonnull %11)
  store ptr null, ptr %pat.i.i.i, align 8
  %patLen.i.i.i = getelementptr inbounds i8, ptr %this, i64 72
  store i32 0, ptr %patLen.i.i.i, align 8
  br label %_ZN6icu_7510UnicodeSet14releasePatternEv.exit.i.i

_ZN6icu_7510UnicodeSet14releasePatternEv.exit.i.i: ; preds = %if.then.i.i.i, %if.end.i.i
  %12 = load ptr, ptr %strings, align 8
  %cmp.not.i.i = icmp eq ptr %12, null
  br i1 %cmp.not.i.i, label %_ZN6icu_7510UnicodeSet10setToBogusEv.exit, label %if.then2.i.i

if.then2.i.i:                                     ; preds = %_ZN6icu_7510UnicodeSet14releasePatternEv.exit.i.i
  call void @_ZN6icu_757UVector17removeAllElementsEv(ptr noundef nonnull align 8 dereferenceable(40) %12)
  br label %_ZN6icu_7510UnicodeSet10setToBogusEv.exit

_ZN6icu_7510UnicodeSet10setToBogusEv.exit:        ; preds = %if.then10, %_ZN6icu_7510UnicodeSet14releasePatternEv.exit.i.i, %if.then2.i.i
  store i8 1, ptr %fFlags.i, align 8
  br label %if.end16

lpad:                                             ; preds = %new.notnull
  %13 = landingpad { ptr, i32 }
          cleanup
  br label %common.resume

if.end11:                                         ; preds = %new.notnull
  %14 = load ptr, ptr %strings, align 8
  call void @_ZN6icu_757UVector12sortedInsertEPvPFi8UElementS2_ER10UErrorCode(ptr noundef nonnull align 8 dereferenceable(40) %14, ptr noundef nonnull %call8, ptr noundef nonnull @_ZN6icu_75L20compareUnicodeStringE8UElementS0_, ptr noundef nonnull align 4 dereferenceable(4) %ec)
  %15 = load i32, ptr %ec, align 4
  %cmp.i = icmp slt i32 %15, 1
  br i1 %cmp.i, label %if.end16, label %if.then15

if.then15:                                        ; preds = %if.end11
  %16 = load ptr, ptr %bmpSet.i, align 8
  %cmp.not.i.i.i5 = icmp eq ptr %16, null
  %17 = load ptr, ptr %stringSpan.i, align 8
  %cmp2.i.i.i7 = icmp eq ptr %17, null
  %narrow.i.not.i.i8 = select i1 %cmp.not.i.i.i5, i1 %cmp2.i.i.i7, i1 false
  br i1 %narrow.i.not.i.i8, label %if.end.i.i10, label %_ZN6icu_7510UnicodeSet10setToBogusEv.exit21

if.end.i.i10:                                     ; preds = %if.then15
  %list.i.i11 = getelementptr inbounds i8, ptr %this, i64 16
  %18 = load ptr, ptr %list.i.i11, align 8
  store i32 1114112, ptr %18, align 4
  %len.i.i12 = getelementptr inbounds i8, ptr %this, i64 28
  store i32 1, ptr %len.i.i12, align 4
  %pat.i.i.i13 = getelementptr inbounds i8, ptr %this, i64 64
  %19 = load ptr, ptr %pat.i.i.i13, align 8
  %tobool.not.i.i.i14 = icmp eq ptr %19, null
  br i1 %tobool.not.i.i.i14, label %_ZN6icu_7510UnicodeSet14releasePatternEv.exit.i.i17, label %if.then.i.i.i15

if.then.i.i.i15:                                  ; preds = %if.end.i.i10
  call void @uprv_free_75(ptr noundef nonnull %19)
  store ptr null, ptr %pat.i.i.i13, align 8
  %patLen.i.i.i16 = getelementptr inbounds i8, ptr %this, i64 72
  store i32 0, ptr %patLen.i.i.i16, align 8
  br label %_ZN6icu_7510UnicodeSet14releasePatternEv.exit.i.i17

_ZN6icu_7510UnicodeSet14releasePatternEv.exit.i.i17: ; preds = %if.then.i.i.i15, %if.end.i.i10
  %20 = load ptr, ptr %strings, align 8
  %cmp.not.i.i19 = icmp eq ptr %20, null
  br i1 %cmp.not.i.i19, label %_ZN6icu_7510UnicodeSet10setToBogusEv.exit21, label %if.then2.i.i20

if.then2.i.i20:                                   ; preds = %_ZN6icu_7510UnicodeSet14releasePatternEv.exit.i.i17
  call void @_ZN6icu_757UVector17removeAllElementsEv(ptr noundef nonnull align 8 dereferenceable(40) %20)
  br label %_ZN6icu_7510UnicodeSet10setToBogusEv.exit21

_ZN6icu_7510UnicodeSet10setToBogusEv.exit21:      ; preds = %if.then15, %_ZN6icu_7510UnicodeSet14releasePatternEv.exit.i.i17, %if.then2.i.i20
  store i8 1, ptr %fFlags.i, align 8
  br label %if.end16

if.end16:                                         ; preds = %entry, %lor.lhs.false, %_ZN6icu_7510UnicodeSet10setToBogusEv.exit21, %if.end11, %_ZN6icu_7510UnicodeSet10setToBogusEv.exit, %if.then6
  ret void
}